target datalayout = "e-m:e-p270:32:32-p271:32:32-p272:64:64-i64:64-i128:128-f80:128-n8:16:32:64-S128"
target triple = "x86_64-unknown-linux-gnu"

%"class.node::crypto::ByteSource" = type { ptr, ptr, i64 }

; Function Attrs: mustprogress nounwind uwtable
define dso_local void @_ZN4node6crypto10ByteSourceC2EOS1_(ptr noundef nonnull align 8 dereferenceable(24) %this, ptr noundef nonnull align 8 dereferenceable(24) %other) unnamed_addr #4 align 2 {
entry:
  %this.addr = alloca ptr, align 8
  %other.addr = alloca ptr, align 8
  store ptr %this, ptr %this.addr, align 8
  store ptr %other, ptr %other.addr, align 8
  %this1 = load ptr, ptr %this.addr, align 8
  %data_ = getelementptr inbounds %"class.node::crypto::ByteSource", ptr %this1, i32 0, i32 0
  %0 = load ptr, ptr %other.addr, align 8
  %data_2 = getelementptr inbounds %"class.node::crypto::ByteSource", ptr %0, i32 0, i32 0
  %1 = load ptr, ptr %data_2, align 8
  store ptr %1, ptr %data_, align 8
  %allocated_data_ = getelementptr inbounds %"class.node::crypto::ByteSource", ptr %this1, i32 0, i32 1
  %2 = load ptr, ptr %other.addr, align 8
  %allocated_data_3 = getelementptr inbounds %"class.node::crypto::ByteSource", ptr %2, i32 0, i32 1
  %3 = load ptr, ptr %allocated_data_3, align 8
  store ptr %3, ptr %allocated_data_, align 8
  %size_ = getelementptr inbounds %"class.node::crypto::ByteSource", ptr %this1, i32 0, i32 2
  %4 = load ptr, ptr %other.addr, align 8
  %size_4 = getelementptr inbounds %"class.node::crypto::ByteSource", ptr %4, i32 0, i32 2
  %5 = load i64, ptr %size_4, align 8
  store i64 %5, ptr %size_, align 8
  %6 = load ptr, ptr %other.addr, align 8
  %allocated_data_5 = getelementptr inbounds %"class.node::crypto::ByteSource", ptr %6, i32 0, i32 1
  store ptr null, ptr %allocated_data_5, align 8
  ret void
}