; Function Attrs: mustprogress nofree norecurse nosync nounwind willreturn memory(argmem: readwrite) uwtable
define dso_local void @_ZN4node6crypto10ByteSourceC2EOS1_(ptr nocapture noundef nonnull writeonly align 8 dereferenceable(24) %this, ptr nocapture noundef nonnull align 8 dereferenceable(24) %other) unnamed_addr #9 align 2 {
entry:
  %0 = load ptr, ptr %other, align 8
  store ptr %0, ptr %this, align 8
  %allocated_data_ = getelementptr inbounds i8, ptr %this, i64 8
  %allocated_data_3 = getelementptr inbounds i8, ptr %other, i64 8
  %1 = load ptr, ptr %allocated_data_3, align 8
  store ptr %1, ptr %allocated_data_, align 8
  %size_ = getelementptr inbounds i8, ptr %this, i64 16
  %size_4 = getelementptr inbounds i8, ptr %other, i64 16
  %2 = load i64, ptr %size_4, align 8
  store i64 %2, ptr %size_, align 8
  store ptr null, ptr %allocated_data_3, align 8
  ret void
}